; Listing generated by Microsoft (R) Optimizing Compiler Version 19.23.28105.4 

include listing.inc

INCLUDELIB MSVCRTD
INCLUDELIB OLDNAMES

CONST	SEGMENT
$SG142118 DB	'C:\Qt\5.13.1\msvc2017_64\include\QtCore\qmetatype.h', 00H
$SG144020 DB	'%s', 00H
	ORG $+9
$SG142119 DB	'qRegisterNormalizedMetaType was called with a not normal'
	DB	'ized type name, please call qRegisterMetaType instead.', 00H
	ORG $+1
$SG142120 DB	'qRegisterNormalizedMetaType', 00H
	ORG $+4
$SG142457 DB	'C:\Qt\5.13.1\msvc2017_64\include\QtCore\qmetatype.h', 00H
	ORG $+12
$SG142458 DB	'qRegisterNormalizedMetaType was called with a not normal'
	DB	'ized type name, please call qRegisterMetaType instead.', 00H
	ORG $+1
$SG142459 DB	'qRegisterNormalizedMetaType', 00H
	ORG $+4
$SG142796 DB	'C:\Qt\5.13.1\msvc2017_64\include\QtCore\qmetatype.h', 00H
	ORG $+12
$SG142797 DB	'qRegisterNormalizedMetaType was called with a not normal'
	DB	'ized type name, please call qRegisterMetaType instead.', 00H
	ORG $+1
$SG142798 DB	'qRegisterNormalizedMetaType', 00H
	ORG $+4
$SG143670 DB	'C:\Qt\5.13.1\msvc2017_64\include\QtCore\qmetatype.h', 00H
	ORG $+12
$SG143671 DB	'qRegisterNormalizedMetaType was called with a not normal'
	DB	'ized type name, please call qRegisterMetaType instead.', 00H
	ORG $+1
$SG143672 DB	'qRegisterNormalizedMetaType', 00H
	ORG $+4
$SG144019 DB	'invalid argument', 00H
	ORG $+15
$SG144021 DB	'C:\Program Files (x86)\Microsoft Visual Studio\2019\Comm'
	DB	'unity\VC\Tools\MSVC\14.23.28105\include\xmemory', 00H
	ORG $+8
$SG144022 DB	'C', 00H, ':', 00H, '\', 00H, 'P', 00H, 'r', 00H, 'o', 00H
	DB	'g', 00H, 'r', 00H, 'a', 00H, 'm', 00H, ' ', 00H, 'F', 00H, 'i'
	DB	00H, 'l', 00H, 'e', 00H, 's', 00H, ' ', 00H, '(', 00H, 'x', 00H
	DB	'8', 00H, '6', 00H, ')', 00H, '\', 00H, 'M', 00H, 'i', 00H, 'c'
	DB	00H, 'r', 00H, 'o', 00H, 's', 00H, 'o', 00H, 'f', 00H, 't', 00H
	DB	' ', 00H, 'V', 00H, 'i', 00H, 's', 00H, 'u', 00H, 'a', 00H, 'l'
	DB	00H, ' ', 00H, 'S', 00H, 't', 00H, 'u', 00H, 'd', 00H, 'i', 00H
	DB	'o', 00H, '\', 00H, '2', 00H, '0', 00H, '1', 00H, '9', 00H, '\'
	DB	00H, 'C', 00H, 'o', 00H, 'm', 00H, 'm', 00H, 'u', 00H, 'n', 00H
	DB	'i', 00H, 't', 00H, 'y', 00H, '\', 00H, 'V', 00H, 'C', 00H, '\'
	DB	00H, 'T', 00H, 'o', 00H, 'o', 00H, 'l', 00H, 's', 00H, '\', 00H
	DB	'M', 00H, 'S', 00H, 'V', 00H, 'C', 00H, '\', 00H, '1', 00H, '4'
	DB	00H, '.', 00H, '2', 00H, '3', 00H, '.', 00H, '2', 00H, '8', 00H
	DB	'1', 00H, '0', 00H, '5', 00H, '\', 00H, 'i', 00H, 'n', 00H, 'c'
	DB	00H, 'l', 00H, 'u', 00H, 'd', 00H, 'e', 00H, '\', 00H, 'x', 00H
	DB	'm', 00H, 'e', 00H, 'm', 00H, 'o', 00H, 'r', 00H, 'y', 00H, 00H
	DB	00H
$SG144023 DB	's', 00H, 't', 00H, 'd', 00H, ':', 00H, ':', 00H, '_', 00H
	DB	'A', 00H, 'l', 00H, 'l', 00H, 'o', 00H, 'c', 00H, 'a', 00H, 't'
	DB	00H, 'e', 00H, '_', 00H, 'm', 00H, 'a', 00H, 'n', 00H, 'u', 00H
	DB	'a', 00H, 'l', 00H, 'l', 00H, 'y', 00H, '_', 00H, 'v', 00H, 'e'
	DB	00H, 'c', 00H, 't', 00H, 'o', 00H, 'r', 00H, '_', 00H, 'a', 00H
	DB	'l', 00H, 'i', 00H, 'g', 00H, 'n', 00H, 'e', 00H, 'd', 00H, 00H
	DB	00H
	ORG $+2
$SG144024 DB	'"', 00H, 'i', 00H, 'n', 00H, 'v', 00H, 'a', 00H, 'l', 00H
	DB	'i', 00H, 'd', 00H, ' ', 00H, 'a', 00H, 'r', 00H, 'g', 00H, 'u'
	DB	00H, 'm', 00H, 'e', 00H, 'n', 00H, 't', 00H, '"', 00H, 00H, 00H
	ORG $+10
$SG144131 DB	'C:\Program Files (x86)\Microsoft Visual Studio\2019\Comm'
	DB	'unity\VC\Tools\MSVC\14.23.28105\include\xlocale', 00H
	ORG $+8
?qt_meta_stringdata_Lab4g@@3Uqt_meta_stringdata_Lab4g_t@@B DD 0ffffffffH ; qt_meta_stringdata_Lab4g
	DD	05H
	DD	00H
	ORG $+4
	DQ	0000000000000120H
	DD	0ffffffffH
	DD	04H
	DD	00H
	ORG $+4
	DQ	000000000000010eH
	DD	0ffffffffH
	DD	00H
	DD	00H
	ORG $+4
	DQ	00000000000000fbH
	DD	0ffffffffH
	DD	04H
	DD	00H
	ORG $+4
	DQ	00000000000000e4H
	DD	0ffffffffH
	DD	03H
	DD	00H
	ORG $+4
	DQ	00000000000000d1H
	DD	0ffffffffH
	DD	04H
	DD	00H
	ORG $+4
	DQ	00000000000000bdH
	DD	0ffffffffH
	DD	03H
	DD	00H
	ORG $+4
	DQ	00000000000000aaH
	DD	0ffffffffH
	DD	03H
	DD	00H
	ORG $+4
	DQ	0000000000000096H
	DD	0ffffffffH
	DD	03H
	DD	00H
	ORG $+4
	DQ	0000000000000082H
	DD	0ffffffffH
	DD	03H
	DD	00H
	ORG $+4
	DQ	000000000000006eH
	DD	0ffffffffH
	DD	05H
	DD	00H
	ORG $+4
	DQ	000000000000005aH
	DD	0ffffffffH
	DD	05H
	DD	00H
	ORG $+4
	DQ	0000000000000048H
	DB	04cH
	DB	061H
	DB	062H
	DB	034H
	DB	067H
	DB	00H
	DB	06bH
	DB	06fH
	DB	068H
	DB	06cH
	DB	00H
	DB	00H
	DB	06bH
	DB	06fH
	DB	068H
	DB	073H
	DB	00H
	DB	074H
	DB	072H
	DB	069H
	DB	00H
	DB	072H
	DB	065H
	DB	063H
	DB	074H
	DB	00H
	DB	070H
	DB	061H
	DB	070H
	DB	00H
	DB	06dH
	DB	061H
	DB	06eH
	DB	00H
	DB	052H
	DB	074H
	DB	050H
	DB	00H
	DB	052H
	DB	074H
	DB	04dH
	DB	00H
	DB	06cH
	DB	076H
	DB	06cH
	DB	075H
	DB	070H
	DB	00H
	DB	06cH
	DB	076H
	DB	06cH
	DB	064H
	DB	077H
	DB	00H
	ORG $+2
	ORG $+8
?qt_meta_data_Lab4g@@3QBIB DD 08H			; qt_meta_data_Lab4g
	DD	00H
	DD	00H
	DD	00H
	DD	0aH
	DD	0eH
	DD	00H
	DD	00H
	DD	00H
	DD	00H
	DD	00H
	DD	00H
	DD	00H
	DD	00H
	DD	01H
	DD	00H
	DD	040H
	DD	02H
	DD	08H
	DD	03H
	DD	00H
	DD	041H
	DD	02H
	DD	08H
	DD	04H
	DD	00H
	DD	042H
	DD	02H
	DD	08H
	DD	05H
	DD	00H
	DD	043H
	DD	02H
	DD	08H
	DD	06H
	DD	00H
	DD	044H
	DD	02H
	DD	08H
	DD	07H
	DD	00H
	DD	045H
	DD	02H
	DD	08H
	DD	08H
	DD	00H
	DD	046H
	DD	02H
	DD	08H
	DD	09H
	DD	00H
	DD	047H
	DD	02H
	DD	08H
	DD	0aH
	DD	00H
	DD	048H
	DD	02H
	DD	08H
	DD	0bH
	DD	00H
	DD	049H
	DD	02H
	DD	08H
	DD	02bH
	DD	02bH
	DD	02bH
	DD	02bH
	DD	02bH
	DD	02bH
	DD	02bH
	DD	02bH
	DD	02bH
	DD	02bH
	DD	00H
	ORG $+4
$SG139179 DB	'C:\Qt\5.13.1\msvc2017_64\include\QtCore\qmetatype.h', 00H
	ORG $+12
$SG139180 DB	'qRegisterNormalizedMetaType was called with a not normal'
	DB	'ized type name, please call qRegisterMetaType instead.', 00H
	ORG $+1
$SG139181 DB	'qRegisterNormalizedMetaType', 00H
CONST	ENDS
PUBLIC	?__empty_global_delete@@YAXPEAX@Z		; __empty_global_delete
PUBLIC	?__empty_global_delete@@YAXPEAX_K@Z		; __empty_global_delete
PUBLIC	??C?$QScopedPointer@VQObjectData@@U?$QScopedPointerDeleter@VQObjectData@@@@@@QEBAPEAVQObjectData@@XZ ; QScopedPointer<QObjectData,QScopedPointerDeleter<QObjectData> >::operator->
PUBLIC	?metaObject@Lab4g@@UEBAPEBUQMetaObject@@XZ	; Lab4g::metaObject
PUBLIC	?qt_metacast@Lab4g@@UEAAPEAXPEBD@Z		; Lab4g::qt_metacast
PUBLIC	?qt_metacall@Lab4g@@UEAAHW4Call@QMetaObject@@HPEAPEAX@Z ; Lab4g::qt_metacall
PUBLIC	?qt_static_metacall@Lab4g@@CAXPEAVQObject@@W4Call@QMetaObject@@HPEAPEAX@Z ; Lab4g::qt_static_metacall
PUBLIC	?staticMetaObject@Lab4g@@2UQMetaObject@@B	; Lab4g::staticMetaObject
EXTRN	strcmp:PROC
EXTRN	__imp_?dynamicMetaObject@QObjectData@@QEBAPEAUQMetaObject@@XZ:PROC
EXTRN	__imp_?qt_metacast@QMainWindow@@UEAAPEAXPEBD@Z:PROC
EXTRN	__imp_?qt_metacall@QMainWindow@@UEAAHW4Call@QMetaObject@@HPEAPEAX@Z:PROC
EXTRN	?kohl@Lab4g@@AEAAXXZ:PROC			; Lab4g::kohl
EXTRN	?kohs@Lab4g@@AEAAXXZ:PROC			; Lab4g::kohs
EXTRN	?tri@Lab4g@@AEAAXXZ:PROC			; Lab4g::tri
EXTRN	?rect@Lab4g@@AEAAXXZ:PROC			; Lab4g::rect
EXTRN	?pap@Lab4g@@AEAAXXZ:PROC			; Lab4g::pap
EXTRN	?man@Lab4g@@AEAAXXZ:PROC			; Lab4g::man
EXTRN	?RtP@Lab4g@@AEAAXXZ:PROC			; Lab4g::RtP
EXTRN	?RtM@Lab4g@@AEAAXXZ:PROC			; Lab4g::RtM
EXTRN	?lvlup@Lab4g@@AEAAXXZ:PROC			; Lab4g::lvlup
EXTRN	?lvldw@Lab4g@@AEAAXXZ:PROC			; Lab4g::lvldw
EXTRN	__imp_?staticMetaObject@QMainWindow@@2UQMetaObject@@B:BYTE
EXTRN	__ImageBase:BYTE
_BSS	SEGMENT
?staticMetaObject@Lab4g@@2UQMetaObject@@B DB 030H DUP (?) ; Lab4g::staticMetaObject
_BSS	ENDS
pdata	SEGMENT
$pdata$?metaObject@Lab4g@@UEBAPEBUQMetaObject@@XZ DD imagerel $LN5
	DD	imagerel $LN5+88
	DD	imagerel $unwind$?metaObject@Lab4g@@UEBAPEBUQMetaObject@@XZ
$pdata$?qt_metacast@Lab4g@@UEAAPEAXPEBD@Z DD imagerel $LN5
	DD	imagerel $LN5+75
	DD	imagerel $unwind$?qt_metacast@Lab4g@@UEAAPEAXPEBD@Z
$pdata$?qt_metacall@Lab4g@@UEAAHW4Call@QMetaObject@@HPEAPEAX@Z DD imagerel $LN9
	DD	imagerel $LN9+174
	DD	imagerel $unwind$?qt_metacall@Lab4g@@UEAAHW4Call@QMetaObject@@HPEAPEAX@Z
$pdata$?qt_static_metacall@Lab4g@@CAXPEAVQObject@@W4Call@QMetaObject@@HPEAPEAX@Z DD imagerel $LN18
	DD	imagerel $LN18+252
	DD	imagerel $unwind$?qt_static_metacall@Lab4g@@CAXPEAVQObject@@W4Call@QMetaObject@@HPEAPEAX@Z
pdata	ENDS
CRT$XCU	SEGMENT
??staticMetaObject$initializer$@Lab4g@@2P6AXXZEA@@3P6AXXZEA DQ FLAT:??__E?staticMetaObject@Lab4g@@2UQMetaObject@@B@@YAXXZ ; ??staticMetaObject$initializer$@Lab4g@@2P6AXXZEA@@3P6AXXZEA
CRT$XCU	ENDS
xdata	SEGMENT
$unwind$?metaObject@Lab4g@@UEBAPEBUQMetaObject@@XZ DD 010901H
	DD	06209H
$unwind$?qt_metacast@Lab4g@@UEAAPEAXPEBD@Z DD 010e01H
	DD	0420eH
$unwind$?qt_metacall@Lab4g@@UEAAHW4Call@QMetaObject@@HPEAPEAX@Z DD 011701H
	DD	04217H
$unwind$?qt_static_metacall@Lab4g@@CAXPEAVQObject@@W4Call@QMetaObject@@HPEAPEAX@Z DD 011701H
	DD	06217H
xdata	ENDS
; Function compile flags: /Odtp
;	COMDAT ??__E?staticMetaObject@Lab4g@@2UQMetaObject@@B@@YAXXZ
text$di	SEGMENT
??__E?staticMetaObject@Lab4g@@2UQMetaObject@@B@@YAXXZ PROC ; `dynamic initializer for 'Lab4g::staticMetaObject'', COMDAT
; File C:\Users\digit\source\repos\Lab4g\Lab4g\x64\Debug\moc\moc_Lab4g.cpp
; Line 117
	mov	rax, QWORD PTR __imp_?staticMetaObject@QMainWindow@@2UQMetaObject@@B
	mov	QWORD PTR ?staticMetaObject@Lab4g@@2UQMetaObject@@B, rax
; Line 118
	lea	rax, OFFSET FLAT:?qt_meta_stringdata_Lab4g@@3Uqt_meta_stringdata_Lab4g_t@@B
	mov	QWORD PTR ?staticMetaObject@Lab4g@@2UQMetaObject@@B+8, rax
; Line 119
	lea	rax, OFFSET FLAT:?qt_meta_data_Lab4g@@3QBIB
	mov	QWORD PTR ?staticMetaObject@Lab4g@@2UQMetaObject@@B+16, rax
; Line 120
	lea	rax, OFFSET FLAT:?qt_static_metacall@Lab4g@@CAXPEAVQObject@@W4Call@QMetaObject@@HPEAPEAX@Z ; Lab4g::qt_static_metacall
	mov	QWORD PTR ?staticMetaObject@Lab4g@@2UQMetaObject@@B+24, rax
; Line 121
	mov	QWORD PTR ?staticMetaObject@Lab4g@@2UQMetaObject@@B+32, 0
; Line 122
	mov	QWORD PTR ?staticMetaObject@Lab4g@@2UQMetaObject@@B+40, 0
	ret	0
??__E?staticMetaObject@Lab4g@@2UQMetaObject@@B@@YAXXZ ENDP ; `dynamic initializer for 'Lab4g::staticMetaObject''
text$di	ENDS
; Function compile flags: /Odtp
_TEXT	SEGMENT
tv69 = 32
_t$1 = 40
_o$ = 64
_c$ = 72
_id$ = 80
_a$ = 88
?qt_static_metacall@Lab4g@@CAXPEAVQObject@@W4Call@QMetaObject@@HPEAPEAX@Z PROC ; Lab4g::qt_static_metacall
; File C:\Users\digit\source\repos\Lab4g\Lab4g\x64\Debug\moc\moc_Lab4g.cpp
; Line 95
$LN18:
	mov	QWORD PTR [rsp+32], r9
	mov	DWORD PTR [rsp+24], r8d
	mov	DWORD PTR [rsp+16], edx
	mov	QWORD PTR [rsp+8], rcx
	sub	rsp, 56					; 00000038H
; Line 96
	cmp	DWORD PTR _c$[rsp], 0
	jne	$LN4@qt_static_
; Line 97
	mov	rax, QWORD PTR _o$[rsp]
	mov	QWORD PTR _t$1[rsp], rax
; Line 99
	mov	eax, DWORD PTR _id$[rsp]
	mov	DWORD PTR tv69[rsp], eax
	cmp	DWORD PTR tv69[rsp], 9
	ja	$LN15@qt_static_
	movsxd	rax, DWORD PTR tv69[rsp]
	lea	rcx, OFFSET FLAT:__ImageBase
	mov	eax, DWORD PTR $LN17@qt_static_[rcx+rax*4]
	add	rax, rcx
	jmp	rax
$LN5@qt_static_:
; Line 100
	mov	rcx, QWORD PTR _t$1[rsp]
	call	?kohl@Lab4g@@AEAAXXZ			; Lab4g::kohl
	jmp	SHORT $LN2@qt_static_
$LN6@qt_static_:
; Line 101
	mov	rcx, QWORD PTR _t$1[rsp]
	call	?kohs@Lab4g@@AEAAXXZ			; Lab4g::kohs
	jmp	SHORT $LN2@qt_static_
$LN7@qt_static_:
; Line 102
	mov	rcx, QWORD PTR _t$1[rsp]
	call	?tri@Lab4g@@AEAAXXZ			; Lab4g::tri
	jmp	SHORT $LN2@qt_static_
$LN8@qt_static_:
; Line 103
	mov	rcx, QWORD PTR _t$1[rsp]
	call	?rect@Lab4g@@AEAAXXZ			; Lab4g::rect
	jmp	SHORT $LN2@qt_static_
$LN9@qt_static_:
; Line 104
	mov	rcx, QWORD PTR _t$1[rsp]
	call	?pap@Lab4g@@AEAAXXZ			; Lab4g::pap
	jmp	SHORT $LN2@qt_static_
$LN10@qt_static_:
; Line 105
	mov	rcx, QWORD PTR _t$1[rsp]
	call	?man@Lab4g@@AEAAXXZ			; Lab4g::man
	jmp	SHORT $LN2@qt_static_
$LN11@qt_static_:
; Line 106
	mov	rcx, QWORD PTR _t$1[rsp]
	call	?RtP@Lab4g@@AEAAXXZ			; Lab4g::RtP
	jmp	SHORT $LN2@qt_static_
$LN12@qt_static_:
; Line 107
	mov	rcx, QWORD PTR _t$1[rsp]
	call	?RtM@Lab4g@@AEAAXXZ			; Lab4g::RtM
	jmp	SHORT $LN2@qt_static_
$LN13@qt_static_:
; Line 108
	mov	rcx, QWORD PTR _t$1[rsp]
	call	?lvlup@Lab4g@@AEAAXXZ			; Lab4g::lvlup
	jmp	SHORT $LN2@qt_static_
$LN14@qt_static_:
; Line 109
	mov	rcx, QWORD PTR _t$1[rsp]
	call	?lvldw@Lab4g@@AEAAXXZ			; Lab4g::lvldw
$LN15@qt_static_:
$LN2@qt_static_:
$LN4@qt_static_:
; Line 114
	add	rsp, 56					; 00000038H
	ret	0
	npad	2
$LN17@qt_static_:
	DD	$LN5@qt_static_
	DD	$LN6@qt_static_
	DD	$LN7@qt_static_
	DD	$LN8@qt_static_
	DD	$LN9@qt_static_
	DD	$LN10@qt_static_
	DD	$LN11@qt_static_
	DD	$LN12@qt_static_
	DD	$LN13@qt_static_
	DD	$LN14@qt_static_
?qt_static_metacall@Lab4g@@CAXPEAVQObject@@W4Call@QMetaObject@@HPEAPEAX@Z ENDP ; Lab4g::qt_static_metacall
_TEXT	ENDS
; Function compile flags: /Odtp
_TEXT	SEGMENT
this$ = 48
_c$ = 56
_id$ = 64
_a$ = 72
?qt_metacall@Lab4g@@UEAAHW4Call@QMetaObject@@HPEAPEAX@Z PROC ; Lab4g::qt_metacall
; File C:\Users\digit\source\repos\Lab4g\Lab4g\x64\Debug\moc\moc_Lab4g.cpp
; Line 140
$LN9:
	mov	QWORD PTR [rsp+32], r9
	mov	DWORD PTR [rsp+24], r8d
	mov	DWORD PTR [rsp+16], edx
	mov	QWORD PTR [rsp+8], rcx
	sub	rsp, 40					; 00000028H
; Line 141
	mov	r9, QWORD PTR _a$[rsp]
	mov	r8d, DWORD PTR _id$[rsp]
	mov	edx, DWORD PTR _c$[rsp]
	mov	rcx, QWORD PTR this$[rsp]
	call	QWORD PTR __imp_?qt_metacall@QMainWindow@@UEAAHW4Call@QMetaObject@@HPEAPEAX@Z
	mov	DWORD PTR _id$[rsp], eax
; Line 142
	cmp	DWORD PTR _id$[rsp], 0
	jge	SHORT $LN2@qt_metacal
; Line 143
	mov	eax, DWORD PTR _id$[rsp]
	jmp	SHORT $LN1@qt_metacal
$LN2@qt_metacal:
; Line 144
	cmp	DWORD PTR _c$[rsp], 0
	jne	SHORT $LN3@qt_metacal
; Line 145
	cmp	DWORD PTR _id$[rsp], 10
	jge	SHORT $LN5@qt_metacal
; Line 146
	mov	r9, QWORD PTR _a$[rsp]
	mov	r8d, DWORD PTR _id$[rsp]
	mov	edx, DWORD PTR _c$[rsp]
	mov	rcx, QWORD PTR this$[rsp]
	call	?qt_static_metacall@Lab4g@@CAXPEAVQObject@@W4Call@QMetaObject@@HPEAPEAX@Z ; Lab4g::qt_static_metacall
$LN5@qt_metacal:
; Line 147
	mov	eax, DWORD PTR _id$[rsp]
	sub	eax, 10
	mov	DWORD PTR _id$[rsp], eax
	jmp	SHORT $LN4@qt_metacal
$LN3@qt_metacal:
; Line 148
	cmp	DWORD PTR _c$[rsp], 12
	jne	SHORT $LN6@qt_metacal
; Line 149
	cmp	DWORD PTR _id$[rsp], 10
	jge	SHORT $LN7@qt_metacal
; Line 150
	mov	eax, 8
	imul	rax, rax, 0
	mov	rcx, QWORD PTR _a$[rsp]
	mov	rax, QWORD PTR [rcx+rax]
	mov	DWORD PTR [rax], -1
$LN7@qt_metacal:
; Line 151
	mov	eax, DWORD PTR _id$[rsp]
	sub	eax, 10
	mov	DWORD PTR _id$[rsp], eax
$LN6@qt_metacal:
$LN4@qt_metacal:
; Line 153
	mov	eax, DWORD PTR _id$[rsp]
$LN1@qt_metacal:
; Line 154
	add	rsp, 40					; 00000028H
	ret	0
?qt_metacall@Lab4g@@UEAAHW4Call@QMetaObject@@HPEAPEAX@Z ENDP ; Lab4g::qt_metacall
_TEXT	ENDS
; Function compile flags: /Odtp
_TEXT	SEGMENT
this$ = 48
_clname$ = 56
?qt_metacast@Lab4g@@UEAAPEAXPEBD@Z PROC			; Lab4g::qt_metacast
; File C:\Users\digit\source\repos\Lab4g\Lab4g\x64\Debug\moc\moc_Lab4g.cpp
; Line 132
$LN5:
	mov	QWORD PTR [rsp+16], rdx
	mov	QWORD PTR [rsp+8], rcx
	sub	rsp, 40					; 00000028H
; Line 133
	cmp	QWORD PTR _clname$[rsp], 0
	jne	SHORT $LN2@qt_metacas
	xor	eax, eax
	jmp	SHORT $LN1@qt_metacas
$LN2@qt_metacas:
; Line 134
	lea	rdx, OFFSET FLAT:?qt_meta_stringdata_Lab4g@@3Uqt_meta_stringdata_Lab4g_t@@B+288
	mov	rcx, QWORD PTR _clname$[rsp]
	call	strcmp
	test	eax, eax
	jne	SHORT $LN3@qt_metacas
; Line 135
	mov	rax, QWORD PTR this$[rsp]
	jmp	SHORT $LN1@qt_metacas
$LN3@qt_metacas:
; Line 136
	mov	rdx, QWORD PTR _clname$[rsp]
	mov	rcx, QWORD PTR this$[rsp]
	call	QWORD PTR __imp_?qt_metacast@QMainWindow@@UEAAPEAXPEBD@Z
$LN1@qt_metacas:
; Line 137
	add	rsp, 40					; 00000028H
	ret	0
?qt_metacast@Lab4g@@UEAAPEAXPEBD@Z ENDP			; Lab4g::qt_metacast
_TEXT	ENDS
; Function compile flags: /Odtp
_TEXT	SEGMENT
tv82 = 32
this$ = 64
?metaObject@Lab4g@@UEBAPEBUQMetaObject@@XZ PROC		; Lab4g::metaObject
; File C:\Users\digit\source\repos\Lab4g\Lab4g\x64\Debug\moc\moc_Lab4g.cpp
; Line 127
$LN5:
	mov	QWORD PTR [rsp+8], rcx
	sub	rsp, 56					; 00000038H
; Line 128
	mov	rax, QWORD PTR this$[rsp]
	add	rax, 8
	mov	rcx, rax
	call	??C?$QScopedPointer@VQObjectData@@U?$QScopedPointerDeleter@VQObjectData@@@@@@QEBAPEAVQObjectData@@XZ ; QScopedPointer<QObjectData,QScopedPointerDeleter<QObjectData> >::operator->
	cmp	QWORD PTR [rax+40], 0
	je	SHORT $LN3@metaObject
	mov	rax, QWORD PTR this$[rsp]
	add	rax, 8
	mov	rcx, rax
	call	??C?$QScopedPointer@VQObjectData@@U?$QScopedPointerDeleter@VQObjectData@@@@@@QEBAPEAVQObjectData@@XZ ; QScopedPointer<QObjectData,QScopedPointerDeleter<QObjectData> >::operator->
	mov	rcx, rax
	call	QWORD PTR __imp_?dynamicMetaObject@QObjectData@@QEBAPEAUQMetaObject@@XZ
	mov	QWORD PTR tv82[rsp], rax
	jmp	SHORT $LN4@metaObject
$LN3@metaObject:
	lea	rax, OFFSET FLAT:?staticMetaObject@Lab4g@@2UQMetaObject@@B ; Lab4g::staticMetaObject
	mov	QWORD PTR tv82[rsp], rax
$LN4@metaObject:
	mov	rax, QWORD PTR tv82[rsp]
; Line 129
	add	rsp, 56					; 00000038H
	ret	0
?metaObject@Lab4g@@UEBAPEBUQMetaObject@@XZ ENDP		; Lab4g::metaObject
_TEXT	ENDS
; Function compile flags: /Odtp
;	COMDAT ??C?$QScopedPointer@VQObjectData@@U?$QScopedPointerDeleter@VQObjectData@@@@@@QEBAPEAVQObjectData@@XZ
_TEXT	SEGMENT
this$ = 8
??C?$QScopedPointer@VQObjectData@@U?$QScopedPointerDeleter@VQObjectData@@@@@@QEBAPEAVQObjectData@@XZ PROC ; QScopedPointer<QObjectData,QScopedPointerDeleter<QObjectData> >::operator->, COMDAT
; File C:\Qt\5.13.1\msvc2017_64\include\QtCore\qscopedpointer.h
; Line 117
	mov	QWORD PTR [rsp+8], rcx
; Line 118
	mov	rax, QWORD PTR this$[rsp]
	mov	rax, QWORD PTR [rax]
; Line 119
	ret	0
??C?$QScopedPointer@VQObjectData@@U?$QScopedPointerDeleter@VQObjectData@@@@@@QEBAPEAVQObjectData@@XZ ENDP ; QScopedPointer<QObjectData,QScopedPointerDeleter<QObjectData> >::operator->
_TEXT	ENDS
; Function compile flags: /Odtp
;	COMDAT ?__empty_global_delete@@YAXPEAX_K@Z
_TEXT	SEGMENT
__formal$ = 8
__formal$ = 16
?__empty_global_delete@@YAXPEAX_K@Z PROC		; __empty_global_delete, COMDAT
; File C:\Users\digit\source\repos\Lab4g\Lab4g\x64\Debug\moc\moc_Lab4g.cpp
; Line 157
	mov	QWORD PTR [rsp+16], rdx
	mov	QWORD PTR [rsp+8], rcx
	ret	0
?__empty_global_delete@@YAXPEAX_K@Z ENDP		; __empty_global_delete
_TEXT	ENDS
; Function compile flags: /Odtp
;	COMDAT ?__empty_global_delete@@YAXPEAX@Z
_TEXT	SEGMENT
__formal$ = 8
?__empty_global_delete@@YAXPEAX@Z PROC			; __empty_global_delete, COMDAT
; File C:\Users\digit\source\repos\Lab4g\Lab4g\x64\Debug\moc\moc_Lab4g.cpp
; Line 157
	mov	QWORD PTR [rsp+8], rcx
	ret	0
?__empty_global_delete@@YAXPEAX@Z ENDP			; __empty_global_delete
_TEXT	ENDS
END
